
./output/final.elf:     file format elf32-littlearm


Disassembly of section .text:

08000000 <vectors>:
 8000000:	00 00 02 20 cb 01 00 08 c5 01 00 08 c5 01 00 08     ... ............
 8000010:	c5 01 00 08 c5 01 00 08 c5 01 00 08 00 00 00 00     ................
	...
 800002c:	c5 01 00 08 c5 01 00 08 00 00 00 00 c5 01 00 08     ................
 800003c:	c5 01 00 08 c5 01 00 08 c5 01 00 08 c5 01 00 08     ................
 800004c:	c5 01 00 08 00 00 00 00 c5 01 00 08 c5 01 00 08     ................
 800005c:	c5 01 00 08 c5 01 00 08 c5 01 00 08 c5 01 00 08     ................
 800006c:	c5 01 00 08 c5 01 00 08 c5 01 00 08 c5 01 00 08     ................
 800007c:	c5 01 00 08 c5 01 00 08 c5 01 00 08 c5 01 00 08     ................
 800008c:	c5 01 00 08 c5 01 00 08 c5 01 00 08 c5 01 00 08     ................
 800009c:	c5 01 00 08 c5 01 00 08 c5 01 00 08 c5 01 00 08     ................
 80000ac:	c5 01 00 08 c5 01 00 08 c5 01 00 08 c5 01 00 08     ................
 80000bc:	c5 01 00 08 c5 01 00 08 c5 01 00 08 c5 01 00 08     ................
 80000cc:	c5 01 00 08 c5 01 00 08 c5 01 00 08 c5 01 00 08     ................
 80000dc:	c5 01 00 08 c5 01 00 08 c5 01 00 08 c5 01 00 08     ................
 80000ec:	c5 01 00 08 c5 01 00 08 c5 01 00 08 c5 01 00 08     ................
 80000fc:	c5 01 00 08 c5 01 00 08 c5 01 00 08 c5 01 00 08     ................
 800010c:	c5 01 00 08 c5 01 00 08 c5 01 00 08 c5 01 00 08     ................
 800011c:	c5 01 00 08 c5 01 00 08 c5 01 00 08 c5 01 00 08     ................
 800012c:	c5 01 00 08 c5 01 00 08 c5 01 00 08 c5 01 00 08     ................
 800013c:	c5 01 00 08 c5 01 00 08 c5 01 00 08 c5 01 00 08     ................
 800014c:	c5 01 00 08 c5 01 00 08 c5 01 00 08 c5 01 00 08     ................
 800015c:	c5 01 00 08 c5 01 00 08 c5 01 00 08 c5 01 00 08     ................
 800016c:	c5 01 00 08 c5 01 00 08 c5 01 00 08 c5 01 00 08     ................
 800017c:	c5 01 00 08 c5 01 00 08 c5 01 00 08                 ............

08000188 <add>:
 8000188:	b480      	push	{r7}
 800018a:	b083      	sub	sp, #12
 800018c:	af00      	add	r7, sp, #0
 800018e:	6078      	str	r0, [r7, #4]
 8000190:	6039      	str	r1, [r7, #0]
 8000192:	687a      	ldr	r2, [r7, #4]
 8000194:	683b      	ldr	r3, [r7, #0]
 8000196:	4413      	add	r3, r2
 8000198:	4618      	mov	r0, r3
 800019a:	370c      	adds	r7, #12
 800019c:	46bd      	mov	sp, r7
 800019e:	bc80      	pop	{r7}
 80001a0:	4770      	bx	lr
	...

080001a4 <main>:
 80001a4:	b580      	push	{r7, lr}
 80001a6:	af00      	add	r7, sp, #0
 80001a8:	4b04      	ldr	r3, [pc, #16]	; (80001bc <main+0x18>)
 80001aa:	681b      	ldr	r3, [r3, #0]
 80001ac:	4a04      	ldr	r2, [pc, #16]	; (80001c0 <main+0x1c>)
 80001ae:	6812      	ldr	r2, [r2, #0]
 80001b0:	4611      	mov	r1, r2
 80001b2:	4618      	mov	r0, r3
 80001b4:	f7ff ffe8 	bl	8000188 <add>
 80001b8:	e7fe      	b.n	80001b8 <main+0x14>
 80001ba:	bf00      	nop
 80001bc:	20000004 	.word	0x20000004
 80001c0:	20000000 	.word	0x20000000

080001c4 <Default_Handler>:
 80001c4:	b480      	push	{r7}
 80001c6:	af00      	add	r7, sp, #0
 80001c8:	e7fe      	b.n	80001c8 <Default_Handler+0x4>

080001ca <Reset_Handler>:
 80001ca:	b480      	push	{r7}
 80001cc:	af00      	add	r7, sp, #0
 80001ce:	bf00      	nop
 80001d0:	46bd      	mov	sp, r7
 80001d2:	bc80      	pop	{r7}
 80001d4:	4770      	bx	lr
